; ModuleID = 'source-C-CXX/36/76.c'
source_filename = "source-C-CXX/36/76.c"
target datalayout = "e-m:e-p270:32:32-p271:32:32-p272:64:64-i64:64-f80:128-n8:16:32:64-S128"
target triple = "x86_64-pc-linux-gnu"

@.str = private unnamed_addr constant [4 x i8] c"%d\0A\00", align 1
@.str.1 = private unnamed_addr constant [4 x i8] c"%c\0A\00", align 1
@str = private unnamed_addr constant [3 x i8] c"no\00", align 1

; Function Attrs: nounwind sspstrong uwtable
define dso_local void @main() local_unnamed_addr #0 {
  %1 = alloca [100000 x i8], align 16
  %2 = alloca i32, align 4
  %3 = getelementptr inbounds [100000 x i8], [100000 x i8]* %1, i64 0, i64 0
  call void @llvm.lifetime.start.p0i8(i64 100000, i8* nonnull %3) #6
  %4 = bitcast i32* %2 to i8*
  call void @llvm.lifetime.start.p0i8(i64 4, i8* nonnull %4) #6
  %5 = call i32 (i8*, ...) @__isoc99_scanf(i8* getelementptr inbounds ([4 x i8], [4 x i8]* @.str, i64 0, i64 0), i32* nonnull %2)
  %6 = load i32, i32* %2, align 4, !tbaa !5
  %7 = icmp slt i32 %6, 1
  br i1 %7, label %49, label %8

8:                                                ; preds = %0, %45
  %9 = phi i32 [ %46, %45 ], [ 1, %0 ]
  %10 = call i32 (i8*, ...) bitcast (i32 (...)* @gets to i32 (i8*, ...)*)(i8* nonnull %3) #6
  %11 = call i64 @strlen(i8* noundef nonnull %3) #7
  %12 = trunc i64 %11 to i32
  %13 = icmp sgt i32 %12, 0
  br i1 %13, label %14, label %45

14:                                               ; preds = %8
  %15 = add i64 %11, 4294967295
  %16 = and i64 %15, 4294967295
  %17 = and i64 %11, 4294967295
  br label %18

18:                                               ; preds = %14, %33
  %19 = phi i64 [ 0, %14 ], [ %34, %33 ]
  %20 = getelementptr inbounds [100000 x i8], [100000 x i8]* %1, i64 0, i64 %19
  br label %21

21:                                               ; preds = %18, %36
  %22 = phi i64 [ 0, %18 ], [ %37, %36 ]
  %23 = icmp eq i64 %19, %22
  br i1 %23, label %36, label %24

24:                                               ; preds = %21
  %25 = load i8, i8* %20, align 1, !tbaa !9
  %26 = getelementptr inbounds [100000 x i8], [100000 x i8]* %1, i64 0, i64 %22
  %27 = load i8, i8* %26, align 1, !tbaa !9
  %28 = icmp eq i8 %25, %27
  br i1 %28, label %29, label %36

29:                                               ; preds = %24
  %30 = icmp eq i64 %19, %16
  br i1 %30, label %31, label %33

31:                                               ; preds = %29
  %32 = call i32 @puts(i8* nonnull dereferenceable(1) getelementptr inbounds ([3 x i8], [3 x i8]* @str, i64 0, i64 0))
  br label %33

33:                                               ; preds = %31, %29
  %34 = add nuw nsw i64 %19, 1
  %35 = icmp eq i64 %34, %17
  br i1 %35, label %45, label %18, !llvm.loop !10

36:                                               ; preds = %24, %21
  %37 = add nuw nsw i64 %22, 1
  %38 = icmp eq i64 %37, %17
  br i1 %38, label %39, label %21, !llvm.loop !12

39:                                               ; preds = %36
  %40 = and i64 %19, 4294967295
  %41 = getelementptr inbounds [100000 x i8], [100000 x i8]* %1, i64 0, i64 %40
  %42 = load i8, i8* %41, align 1, !tbaa !9
  %43 = sext i8 %42 to i32
  %44 = call i32 (i8*, ...) @printf(i8* nonnull dereferenceable(1) getelementptr inbounds ([4 x i8], [4 x i8]* @.str.1, i64 0, i64 0), i32 %43)
  br label %45

45:                                               ; preds = %33, %8, %39
  %46 = add nuw nsw i32 %9, 1
  %47 = load i32, i32* %2, align 4, !tbaa !5
  %48 = icmp slt i32 %9, %47
  br i1 %48, label %8, label %49, !llvm.loop !13

49:                                               ; preds = %45, %0
  call void @llvm.lifetime.end.p0i8(i64 4, i8* nonnull %4) #6
  call void @llvm.lifetime.end.p0i8(i64 100000, i8* nonnull %3) #6
  ret void
}

; Function Attrs: argmemonly mustprogress nofree nosync nounwind willreturn
declare void @llvm.lifetime.start.p0i8(i64 immarg, i8* nocapture) #1

; Function Attrs: nofree nounwind
declare noundef i32 @__isoc99_scanf(i8* nocapture noundef readonly, ...) local_unnamed_addr #2

declare i32 @gets(...) local_unnamed_addr #3

; Function Attrs: argmemonly mustprogress nofree nounwind readonly willreturn
declare i64 @strlen(i8* nocapture) local_unnamed_addr #4

; Function Attrs: nofree nounwind
declare noundef i32 @printf(i8* nocapture noundef readonly, ...) local_unnamed_addr #2

; Function Attrs: argmemonly mustprogress nofree nosync nounwind willreturn
declare void @llvm.lifetime.end.p0i8(i64 immarg, i8* nocapture) #1

; Function Attrs: nofree nounwind
declare noundef i32 @puts(i8* nocapture noundef readonly) local_unnamed_addr #5


!llvm.module.flags = !{!0, !1, !2, !3}
!llvm.ident = !{!4}

!0 = !{i32 1, !"wchar_size", i32 4}
!1 = !{i32 7, !"PIC Level", i32 2}
!2 = !{i32 7, !"PIE Level", i32 2}
!3 = !{i32 7, !"uwtable", i32 1}
!4 = !{!"clang version 13.0.0"}
!5 = !{!6, !6, i64 0}
!6 = !{!"int", !7, i64 0}
!7 = !{!"omnipotent char", !8, i64 0}
!8 = !{!"Simple C/C++ TBAA"}
!9 = !{!7, !7, i64 0}
!10 = distinct !{!10, !11}
!11 = !{!"llvm.loop.mustprogress"}
!12 = distinct !{!12, !11}
!13 = distinct !{!13, !11}
